%macro proxy_symbols 1
  %1 ??0BinaryIO@Database@@QAE@PBD@Z
  %1 ??0Connection@Database@@QAE@PBDH@Z
  %1 ??0Connection@Database@@QAE@XZ
  %1 ??0Results@Database@@QAE@ABV01@@Z
  %1 ??0Results@Database@@QAE@PBD@Z
  %1 ??0ResultsCache@Database@@QAE@AAVConnection@1@@Z
  %1 ??0SingleResult@Database@@QAE@PBD@Z
  %1 ??0XMLSerializer@Database@@QAE@AAVConnection@1@@Z
  %1 ??1Connection@Database@@QAE@XZ
  %1 ??1Results@Database@@UAE@XZ
  %1 ??1ResultsCache@Database@@QAE@XZ
  %1 ??1XMLSerializer@Database@@QAE@XZ
  %1 ??2Connection@Database@@SAPAXI@Z
  %1 ??2Results@Database@@SAPAXI@Z
  %1 ??3Connection@Database@@SAXPAX@Z
  %1 ??3Results@Database@@SAXPAX@Z
  %1 ??5BinaryIO@Database@@QAE_NAAVConnection@1@@Z
  %1 ??6BinaryIO@Database@@QAE_NAAVConnection@1@@Z
  %1 ??_FResults@Database@@QAEXXZ
  %1 ??_FSingleResult@Database@@QAEXXZ
  %1 ?AddTableToPackageTagList@XMLSerializer@Database@@QAEXPBD@Z
  %1 ?Analyze@Connection@Database@@QBEXXZ
  %1 ?BeginDeferredTransaction@Connection@Database@@QAEXXZ
  %1 ?BeginExclusiveTransaction@Connection@Database@@QAEXXZ
  %1 ?BeginImmediateTransaction@Connection@Database@@QAEXXZ
  %1 ?BeginTransaction@Connection@Database@@QAEXXZ
  %1 ?Bind@Results@Database@@QAE_NHH@Z
  %1 ?Bind@Results@Database@@QAE_NHM@Z
  %1 ?Bind@Results@Database@@QAE_NHN@Z
  %1 ?Bind@Results@Database@@QAE_NHPBDH_N@Z
  %1 ?Bind@Results@Database@@QAE_NHPBD_N@Z
  %1 ?Bind@Results@Database@@QAE_NHPB_WH_N@Z
  %1 ?Bind@Results@Database@@QAE_NHPB_W_N@Z
  %1 ?Bind@Results@Database@@QAE_NH_J@Z
  %1 ?BindNULL@Results@Database@@QAE_NH@Z
  %1 ?CalculateMemoryStats@Connection@Database@@QAEPBDXZ
  %1 ?Clear@ResultsCache@Database@@QAEXABV?$basic_string@DU?$char_traits@D@std@@V?$allocator@D@2@@std@@@Z
  %1 ?Clear@ResultsCache@Database@@QAEXXZ
  %1 ?ClearCountCache@Connection@Database@@QAEXXZ
  %1 ?ClearPackageTagList@XMLSerializer@Database@@QAEXXZ
  %1 ?Close@Connection@Database@@QAEXXZ
  %1 ?ColumnCount@Results@Database@@QBEHXZ
  %1 ?ColumnName@Results@Database@@QAEPBDH@Z
  %1 ?ColumnPosition@Results@Database@@QAEHPBD@Z
  %1 ?ColumnType@Results@Database@@QAE?AW4ColumnTypes@2@H@Z
  %1 ?ColumnTypeName@Results@Database@@QAEPBDH@Z
  %1 ?CommitTransaction@Connection@Database@@QAEXXZ
  %1 ?Connection@ResultsCache@Database@@QAEAAV02@XZ
  %1 ?Count@Connection@Database@@QAEHPBD_N@Z
  %1 ?EndTransaction@Connection@Database@@QAEXXZ
  %1 ?ErrorCode@Connection@Database@@QBEHXZ
  %1 ?ErrorMessage@Connection@Database@@QBEPBDXZ
  %1 ?ErrorMessage@ResultsCache@Database@@QBEPBDXZ
  %1 ?ErrorMessage@XMLSerializer@Database@@QBEPBDXZ
  %1 ?Execute@Connection@Database@@QBE_NAAVResults@2@PBDH@Z
  %1 ?Execute@Connection@Database@@QBE_NPBDH@Z
  %1 ?Execute@Results@Database@@QAE_NXZ
  %1 ?ExecuteMultiple@Connection@Database@@QBE_NPBDH@Z
  %1 ?Get@ResultsCache@Database@@QAEPAVResults@2@ABV?$basic_string@DU?$char_traits@D@std@@V?$allocator@D@2@@std@@@Z
  %1 ?GetBool@Results@Database@@QAE_NH@Z
  %1 ?GetBool@Results@Database@@QAE_NPBD@Z
  %1 ?GetColumns@Results@Database@@UBEPBDXZ
  %1 ?GetDouble@Results@Database@@QAENH@Z
  %1 ?GetDouble@Results@Database@@QAENPBD@Z
  %1 ?GetFloat@Results@Database@@QAEMH@Z
  %1 ?GetFloat@Results@Database@@QAEMPBD@Z
  %1 ?GetInt64@Results@Database@@QAE_JH@Z
  %1 ?GetInt64@Results@Database@@QAE_JPBD@Z
  %1 ?GetInt@Results@Database@@QAEHH@Z
  %1 ?GetInt@Results@Database@@QAEHPBD@Z
  %1 ?GetText16@Results@Database@@QAEPB_WH@Z
  %1 ?GetText16@Results@Database@@QAEPB_WPBD@Z
  %1 ?GetText@Results@Database@@QAEPBDH@Z
  %1 ?GetText@Results@Database@@QAEPBDPBD@Z
  %1 ?GetValue@Results@Database@@QAEXHAAH@Z
  %1 ?GetValue@Results@Database@@QAEXHAAM@Z
  %1 ?GetValue@Results@Database@@QAEXHAAN@Z
  %1 ?GetValue@Results@Database@@QAEXHAAPBD@Z
  %1 ?GetValue@Results@Database@@QAEXHAAPB_W@Z
  %1 ?GetValue@Results@Database@@QAEXHAA_J@Z
  %1 ?GetValue@Results@Database@@QAEXHAA_N@Z
  %1 ?GetValue@Results@Database@@QAEXPBDAAH@Z
  %1 ?GetValue@Results@Database@@QAEXPBDAAM@Z
  %1 ?GetValue@Results@Database@@QAEXPBDAAN@Z
  %1 ?GetValue@Results@Database@@QAEXPBDAAPBD@Z
  %1 ?GetValue@Results@Database@@QAEXPBDAAPB_W@Z
  %1 ?GetValue@Results@Database@@QAEXPBDAA_J@Z
  %1 ?GetValue@Results@Database@@QAEXPBDAA_N@Z
  %1 ?HasColumn@Results@Database@@QAE_NPBD@Z
  %1 ?HashColumnPositions@Results@Database@@IAEXXZ
  %1 ?Load@BinaryIO@Database@@QAE_NAAVConnection@2@@Z
  %1 ?Load@XMLSerializer@Database@@QAE_NPB_W@Z
  %1 ?Load@XMLSerializer@Database@@QAE_NPB_WAAVResultsCache@2@@Z
  %1 ?LoadFromMemory@XMLSerializer@Database@@QAE_NPB_WPADI@Z
  %1 ?LoadFromMemory@XMLSerializer@Database@@QAE_NPB_WPADIAAVResultsCache@2@@Z
  %1 ?LogError@Connection@Database@@QBEXPBD@Z
  %1 ?LogMessage@Connection@Database@@QBEXPBD@Z
  %1 ?LogWarning@Connection@Database@@QBEXPBD@Z
  %1 ?Open@Connection@Database@@QAE_NPBDH@Z
  %1 ?Prepare@ResultsCache@Database@@QAEPAVResults@2@ABV?$basic_string@DU?$char_traits@D@std@@V?$allocator@D@2@@std@@PBDH@Z
  %1 ?PushDatabase@Lua@Scripting@Database@@SAXPAUlua_State@@AAVConnection@3@@Z
  %1 ?PushDatabaseQuery@Lua@Scripting@Database@@SAPAVResults@3@PAUlua_State@@PAVConnection@3@PBD@Z
  %1 ?PushDatabaseRow@Lua@Scripting@Database@@SAXPAUlua_State@@PAVResults@3@@Z
  %1 ?PushDatabaseTable@Lua@Scripting@Database@@SAXPAUlua_State@@AAVConnection@3@PBD@Z
  %1 ?Release@Results@Database@@QAEXXZ
  %1 ?RemoveTableFromPackageTagList@XMLSerializer@Database@@QAEXPBD@Z
  %1 ?Reset@Results@Database@@QAE_NXZ
  %1 ?RollbackToSavePoint@Connection@Database@@QAE_NPBD@Z
  %1 ?RollbackTransaction@Connection@Database@@QAEXXZ
  %1 ?Save@BinaryIO@Database@@QAE_NAAVConnection@2@@Z
  %1 ?SelectAll@Connection@Database@@QAE_NAAVResults@2@PBD@Z
  %1 ?SelectAt@Connection@Database@@QAE_NAAVResults@2@PBD11@Z
  %1 ?SelectAt@Connection@Database@@QAE_NAAVResults@2@PBD1H@Z
  %1 ?SelectAt@Connection@Database@@QAE_NAAVResults@2@PBD1N@Z
  %1 ?SelectAt@Connection@Database@@QAE_NAAVResults@2@PBDH@Z
  %1 ?SelectWhere@Connection@Database@@QAE_NAAVResults@2@PBD1@Z
  %1 ?SetBusyTimeout@Connection@Database@@QAE_NH@Z
  %1 ?SetColumns@Results@Database@@QAEXPBD@Z
  %1 ?SetLogger@Connection@Database@@QAEXPAVIDatabaseLogger@2@@Z
  %1 ?SetPackageTag@XMLSerializer@Database@@QAEXPBD@Z
  %1 ?SetSavePoint@Connection@Database@@QAE_NPBD@Z
  %1 ?SingleQuery@Results@Database@@QAEX_N@Z
  %1 ?SingleQuery@Results@Database@@QBE_NXZ
  %1 ?StatementCount@Connection@Database@@QBEHXZ
  %1 ?StatementSQL@Connection@Database@@QBEPBDH@Z
  %1 ?Step@Results@Database@@QAE_NXZ
  %1 ?TotalChanges@Connection@Database@@QBEHXZ
  %1 ?TryExecute@Results@Database@@QAE_NXZ
  %1 ?TryReset@Results@Database@@QAE_NXZ
  %1 ?UseTransactions@XMLSerializer@Database@@QAEX_N@Z
  %1 ?UseTransactions@XMLSerializer@Database@@QBE_NXZ
  %1 ?Vacuum@Connection@Database@@QBEXXZ
  %1 ?ValidateFKConstraints@Connection@Database@@QBE_N_N@Z
  %1 ?lCollectMemoryUsage@Lua@Scripting@Database@@SAHPAUlua_State@@@Z
  %1 ?lGetMemoryUsage@Lua@Scripting@Database@@SAHPAUlua_State@@@Z
%endmacro
